target datalayout = "e-m:e-p270:32:32-p271:32:32-p272:64:64-i64:64-i128:128-f80:128-n8:16:32:64-S128"
target triple = "x86_64-pc-linux-gnu"

%"class.folly::AsyncUDPSocket" = type { %"class.folly::EventHandler", i16, ptr, ptr, %"class.folly::SocketAddress", %"struct.folly::NetworkSocket", i32, %"class.folly::SocketAddress", %"class.folly::SocketAddress", i8, i8, i8, i8, i8, i8, i32, i32, i32, %"class.folly::Optional.13", %"class.folly::Optional.13", %"class.folly::Optional.15", %"class.folly::Optional.13", ptr, i8, i8, i64, i64, i32, %"class.std::unordered_map", %"class.folly::Function", %"class.std::map", %"class.std::map", ptr, %"class.std::map.26", [8 x i8], %"class.folly::Function.31", %"class.folly::netops::DispatcherContainer" }
%"class.folly::EventHandler" = type { ptr, %"class.folly::EventBaseEvent", ptr }
%"class.folly::EventBaseEvent" = type { %struct.event, ptr, ptr, ptr, %"struct.folly::EventCallback" }
%struct.event = type { %struct.event_callback, %union.anon.2, i32, ptr, %union.anon.4, i16, i16, %struct.timeval }
%struct.event_callback = type { %struct.anon, i16, i8, i8, %union.anon.1, ptr }
%struct.anon = type { ptr, ptr }
%union.anon.1 = type { ptr }
%union.anon.2 = type { %struct.anon.3 }
%struct.anon.3 = type { ptr, ptr }
%union.anon.4 = type { %struct.anon.5 }
%struct.anon.5 = type { %struct.anon.6, %struct.timeval }
%struct.anon.6 = type { ptr, ptr }
%struct.timeval = type { i64, i64 }
%"struct.folly::EventCallback" = type { i32, %union.anon.9 }
%union.anon.9 = type { ptr }
%"struct.folly::NetworkSocket" = type { i32 }
%"class.folly::SocketAddress" = type <{ %"union.folly::SocketAddress::AddrStorage", i16, i8, [5 x i8] }>
%"union.folly::SocketAddress::AddrStorage" = type { %"struct.folly::SocketAddress::ExternalUnixAddr", [8 x i8] }
%"struct.folly::SocketAddress::ExternalUnixAddr" = type { ptr, i32 }
%"class.folly::Optional.15" = type { %"struct.folly::Optional<folly::AsyncUDPSocket::TXTime>::StorageTriviallyDestructible" }
%"struct.folly::Optional<folly::AsyncUDPSocket::TXTime>::StorageTriviallyDestructible" = type { %union.anon.16, i8, [3 x i8] }
%union.anon.16 = type { %"struct.folly::AsyncUDPSocket::TXTime" }
%"struct.folly::AsyncUDPSocket::TXTime" = type <{ i32, i8, [3 x i8] }>
%"class.folly::Optional.13" = type { %"struct.folly::Optional<int>::StorageTriviallyDestructible" }
%"struct.folly::Optional<int>::StorageTriviallyDestructible" = type <{ %union.anon.14, i8, [3 x i8] }>
%union.anon.14 = type { i32 }
%"class.std::unordered_map" = type { %"class.std::_Hashtable" }
%"class.std::_Hashtable" = type { ptr, i64, %"struct.std::__detail::_Hash_node_base", i64, %"struct.std::__detail::_Prime_rehash_policy", ptr }
%"struct.std::__detail::_Hash_node_base" = type { ptr }
%"struct.std::__detail::_Prime_rehash_policy" = type { float, i64 }
%"class.folly::Function" = type { %"union.folly::detail::function::Data", ptr, ptr }
%"union.folly::detail::function::Data" = type { %"struct.folly::detail::function::Data::BigTrivialLayout", [24 x i8] }
%"struct.folly::detail::function::Data::BigTrivialLayout" = type { ptr, i64, i64 }
%"class.std::map" = type { %"class.std::_Rb_tree" }
%"class.std::_Rb_tree" = type { %"struct.std::_Rb_tree<folly::SocketOptionKey, std::pair<const folly::SocketOptionKey, int>, std::_Select1st<std::pair<const folly::SocketOptionKey, int>>, std::less<folly::SocketOptionKey>>::_Rb_tree_impl" }
%"struct.std::_Rb_tree<folly::SocketOptionKey, std::pair<const folly::SocketOptionKey, int>, std::_Select1st<std::pair<const folly::SocketOptionKey, int>>, std::less<folly::SocketOptionKey>>::_Rb_tree_impl" = type { [8 x i8], %"struct.std::_Rb_tree_header" }
%"struct.std::_Rb_tree_header" = type { %"struct.std::_Rb_tree_node_base", i64 }
%"struct.std::_Rb_tree_node_base" = type { i32, ptr, ptr, ptr }
%"class.std::map.26" = type { %"class.std::_Rb_tree.27" }
%"class.std::_Rb_tree.27" = type { %"struct.std::_Rb_tree<folly::SocketOptionKey, std::pair<const folly::SocketOptionKey, std::__cxx11::basic_string<char>>, std::_Select1st<std::pair<const folly::SocketOptionKey, std::__cxx11::basic_string<char>>>, std::less<folly::SocketOptionKey>>::_Rb_tree_impl" }
%"struct.std::_Rb_tree<folly::SocketOptionKey, std::pair<const folly::SocketOptionKey, std::__cxx11::basic_string<char>>, std::_Select1st<std::pair<const folly::SocketOptionKey, std::__cxx11::basic_string<char>>>, std::less<folly::SocketOptionKey>>::_Rb_tree_impl" = type { [8 x i8], %"struct.std::_Rb_tree_header" }
%"class.folly::Function.31" = type { %"union.folly::detail::function::Data", ptr, ptr }
%"class.folly::netops::DispatcherContainer" = type { %"class.std::shared_ptr" }
%"class.std::shared_ptr" = type { %"class.std::__shared_ptr" }
%"class.std::__shared_ptr" = type { ptr, %"class.std::__shared_count" }
%"class.std::__shared_count" = type { ptr }
%"struct.folly::netops::sock_txtime" = type { i32, i32 }

; Function Attrs: mustprogress nounwind uwtable
define linkonce_odr noundef zeroext i1 @_ZNK5folly8OptionalINS_14AsyncUDPSocket6TXTimeEE9has_valueEv(ptr noundef nonnull align 4 dereferenceable(12) %0) #0 comdat align 2 {
  %2 = alloca ptr, align 8
  store ptr %0, ptr %2, align 8, !tbaa !210
  %3 = load ptr, ptr %2, align 8
  %4 = getelementptr inbounds nuw %"class.folly::Optional.15", ptr %3, i32 0, i32 0
  %5 = getelementptr inbounds nuw %"struct.folly::Optional<folly::AsyncUDPSocket::TXTime>::StorageTriviallyDestructible", ptr %4, i32 0, i32 1
  %6 = load i8, ptr %5, align 4, !tbaa !531, !range !114, !noundef !115
  %7 = trunc i8 %6 to i1
  ret i1 %7
}

; Function Attrs: mustprogress nounwind uwtable
define linkonce_odr void @_ZN5folly8OptionalINS_14AsyncUDPSocket6TXTimeEE9constructIJS2_EEEvDpOT_(ptr noundef nonnull align 4 dereferenceable(12) %0, ptr noundef nonnull align 4 dereferenceable(5) %1) #0 comdat align 2 {
  %3 = alloca ptr, align 8
  %4 = alloca ptr, align 8
  %5 = alloca ptr, align 8
  store ptr %0, ptr %3, align 8, !tbaa !210
  store ptr %1, ptr %4, align 8, !tbaa !753
  %6 = load ptr, ptr %3, align 8
  call void @llvm.lifetime.start.p0(i64 8, ptr %5) #25
  %7 = getelementptr inbounds nuw %"class.folly::Optional.15", ptr %6, i32 0, i32 0
  %8 = getelementptr inbounds nuw %"struct.folly::Optional<folly::AsyncUDPSocket::TXTime>::StorageTriviallyDestructible", ptr %7, i32 0, i32 0
  store ptr %8, ptr %5, align 8, !tbaa !198
  %9 = load ptr, ptr %5, align 8, !tbaa !198
  %10 = load ptr, ptr %4, align 8, !tbaa !753
  call void @llvm.memcpy.p0.p0.i64(ptr align 4 %9, ptr align 4 %10, i64 8, i1 false), !tbaa.struct !752
  %11 = getelementptr inbounds nuw %"class.folly::Optional.15", ptr %6, i32 0, i32 0
  %12 = getelementptr inbounds nuw %"struct.folly::Optional<folly::AsyncUDPSocket::TXTime>::StorageTriviallyDestructible", ptr %11, i32 0, i32 1
  store i8 1, ptr %12, align 4, !tbaa !531
  call void @llvm.lifetime.end.p0(i64 8, ptr %5) #25
  ret void
}

; Function Attrs: mustprogress nounwind uwtable
define linkonce_odr noundef zeroext i1 @_ZNK5folly8OptionalINS_14AsyncUDPSocket6TXTimeEE8hasValueEv(ptr noundef nonnull align 4 dereferenceable(12) %0) #0 comdat align 2 {
  %2 = alloca ptr, align 8
  store ptr %0, ptr %2, align 8, !tbaa !210
  %3 = load ptr, ptr %2, align 8
  %4 = call noundef zeroext i1 @_ZNK5folly8OptionalINS_14AsyncUDPSocket6TXTimeEE9has_valueEv(ptr noundef nonnull align 4 dereferenceable(12) %3) #25
  ret i1 %4
}

; Function Attrs: mustprogress uwtable
define linkonce_odr void @_ZN5folly8OptionalINS_14AsyncUDPSocket6TXTimeEE6assignEOS2_(ptr noundef nonnull align 4 dereferenceable(12) %0, ptr noundef nonnull align 4 dereferenceable(5) %1) #1 comdat align 2 {
  %3 = alloca ptr, align 8
  %4 = alloca ptr, align 8
  store ptr %0, ptr %3, align 8, !tbaa !210
  store ptr %1, ptr %4, align 8, !tbaa !753
  %5 = load ptr, ptr %3, align 8
  %6 = call noundef zeroext i1 @_ZNK5folly8OptionalINS_14AsyncUDPSocket6TXTimeEE8hasValueEv(ptr noundef nonnull align 4 dereferenceable(12) %5) #25
  br i1 %6, label %7, label %11

7:                                                ; preds = %2
  %8 = load ptr, ptr %4, align 8, !tbaa !753
  %9 = getelementptr inbounds nuw %"class.folly::Optional.15", ptr %5, i32 0, i32 0
  %10 = getelementptr inbounds nuw %"struct.folly::Optional<folly::AsyncUDPSocket::TXTime>::StorageTriviallyDestructible", ptr %9, i32 0, i32 0
  call void @llvm.memcpy.p0.p0.i64(ptr align 4 %10, ptr align 4 %8, i64 5, i1 false), !tbaa.struct !752
  br label %13

11:                                               ; preds = %2
  %12 = load ptr, ptr %4, align 8, !tbaa !753
  call void @_ZN5folly8OptionalINS_14AsyncUDPSocket6TXTimeEE9constructIJS2_EEEvDpOT_(ptr noundef nonnull align 4 dereferenceable(12) %5, ptr noundef nonnull align 4 dereferenceable(5) %12)
  br label %13

13:                                               ; preds = %11, %7
  ret void
}

; Function Attrs: mustprogress uwtable
define linkonce_odr noundef nonnull align 4 dereferenceable(12) ptr @_ZN5folly8OptionalINS_14AsyncUDPSocket6TXTimeEEaSIS2_EERS3_OT_(ptr noundef nonnull align 4 dereferenceable(12) %0, ptr noundef nonnull align 4 dereferenceable(5) %1) #1 comdat align 2 {
  %3 = alloca ptr, align 8
  %4 = alloca ptr, align 8
  store ptr %0, ptr %3, align 8, !tbaa !210
  store ptr %1, ptr %4, align 8, !tbaa !753
  %5 = load ptr, ptr %3, align 8
  %6 = load ptr, ptr %4, align 8, !tbaa !753
  call void @_ZN5folly8OptionalINS_14AsyncUDPSocket6TXTimeEE6assignEOS2_(ptr noundef nonnull align 4 dereferenceable(12) %5, ptr noundef nonnull align 4 dereferenceable(5) %6)
  ret ptr %5
}

; Function Attrs: inlinehint mustprogress nounwind uwtable
define linkonce_odr void @_ZN5folly14AsyncUDPSocket6TXTimeC2Ev(ptr noundef nonnull align 4 dereferenceable(5) %0) unnamed_addr #4 comdat align 2 {
  %2 = alloca ptr, align 8
  store ptr %0, ptr %2, align 8, !tbaa !753
  %3 = load ptr, ptr %2, align 8
  %4 = getelementptr inbounds nuw %"struct.folly::AsyncUDPSocket::TXTime", ptr %3, i32 0, i32 0
  store i32 -1, ptr %4, align 4, !tbaa !127
  %5 = getelementptr inbounds nuw %"struct.folly::AsyncUDPSocket::TXTime", ptr %3, i32 0, i32 1
  store i8 0, ptr %5, align 4, !tbaa !751
  ret void
}

; Function Attrs: mustprogress uwtable
define noundef zeroext i1 @_ZN5folly14AsyncUDPSocket9setTXTimeENS0_6TXTimeE(ptr noundef nonnull align 16 dereferenceable(768) %0, i64 %1) #1 align 2 {
  %3 = alloca %"struct.folly::AsyncUDPSocket::TXTime", align 4
  %4 = alloca ptr, align 8
  %5 = alloca %"struct.folly::netops::sock_txtime", align 4
  %6 = alloca i32, align 4
  %7 = alloca %"struct.folly::NetworkSocket", align 4
  %8 = alloca %"struct.folly::AsyncUDPSocket::TXTime", align 4
  store i64 %1, ptr %3, align 4
  store ptr %0, ptr %4, align 8, !tbaa !7
  %9 = load ptr, ptr %4, align 8
  call void @llvm.lifetime.start.p0(i64 8, ptr %5) #25
  %10 = getelementptr inbounds nuw %"struct.folly::AsyncUDPSocket::TXTime", ptr %3, i32 0, i32 0
  %11 = load i32, ptr %10, align 4, !tbaa !127
  %12 = getelementptr inbounds nuw %"struct.folly::netops::sock_txtime", ptr %5, i32 0, i32 0
  store i32 %11, ptr %12, align 4, !tbaa !748
  %13 = getelementptr inbounds nuw %"struct.folly::AsyncUDPSocket::TXTime", ptr %3, i32 0, i32 1
  %14 = load i8, ptr %13, align 4, !tbaa !751, !range !114, !noundef !115
  %15 = trunc i8 %14 to i1
  %16 = select i1 %15, i32 1, i32 0
  %17 = getelementptr inbounds nuw %"struct.folly::netops::sock_txtime", ptr %5, i32 0, i32 1
  store i32 %16, ptr %17, align 4, !tbaa !750
  call void @llvm.lifetime.start.p0(i64 4, ptr %6) #25
  %18 = getelementptr inbounds nuw %"class.folly::AsyncUDPSocket", ptr %9, i32 0, i32 5
  call void @llvm.memcpy.p0.p0.i64(ptr align 4 %7, ptr align 16 %18, i64 4, i1 false), !tbaa.struct !77
  %19 = getelementptr inbounds nuw %"struct.folly::NetworkSocket", ptr %7, i32 0, i32 0
  %20 = load i32, ptr %19, align 4
  %21 = call noundef i32 @_ZN5folly6netops10setsockoptENS_13NetworkSocketEiiPKvj(i32 %20, i32 noundef 1, i32 noundef 61, ptr noundef %5, i32 noundef 8)
  store i32 %21, ptr %6, align 4, !tbaa !74
  call void @llvm.lifetime.start.p0(i64 8, ptr %8) #25
  %22 = load i32, ptr %6, align 4, !tbaa !74
  %23 = icmp ne i32 %22, 0
  br i1 %23, label %24, label %25

24:                                               ; preds = %2
  call void @llvm.memset.p0.i64(ptr align 4 %8, i8 0, i64 8, i1 false)
  call void @_ZN5folly14AsyncUDPSocket6TXTimeC2Ev(ptr noundef nonnull align 4 dereferenceable(5) %8) #25
  br label %26

25:                                               ; preds = %2
  call void @llvm.memcpy.p0.p0.i64(ptr align 4 %8, ptr align 4 %3, i64 5, i1 false), !tbaa.struct !752
  br label %26

26:                                               ; preds = %25, %24
  %27 = getelementptr inbounds nuw %"class.folly::AsyncUDPSocket", ptr %9, i32 0, i32 20
  %28 = call noundef nonnull align 4 dereferenceable(12) ptr @_ZN5folly8OptionalINS_14AsyncUDPSocket6TXTimeEEaSIS2_EERS3_OT_(ptr noundef nonnull align 4 dereferenceable(12) %27, ptr noundef nonnull align 4 dereferenceable(5) %8)
  call void @llvm.lifetime.end.p0(i64 8, ptr %8) #25
  %29 = load i32, ptr %6, align 4, !tbaa !74
  %30 = icmp ne i32 %29, 0
  %31 = xor i1 %30, true
  call void @llvm.lifetime.end.p0(i64 4, ptr %6) #25
  call void @llvm.lifetime.end.p0(i64 8, ptr %5) #25
  ret i1 %31
}