; Function Attrs: mustprogress uwtable
define noundef zeroext i1 @_ZN5folly14AsyncUDPSocket9setTXTimeENS0_6TXTimeE(ptr noundef nonnull align 16 captures(none) dereferenceable(768) initializes((348, 353)) %0, i64 %1) local_unnamed_addr #1 align 2 {
  %3 = alloca %"struct.folly::netops::sock_txtime", align 4
  %.sroa.02.0.extract.trunc = trunc i64 %1 to i32
  %.sroa.3.0.extract.shift = lshr i64 %1, 32
  call void @llvm.lifetime.start.p0(i64 8, ptr nonnull %3) #36
  store i32 %.sroa.02.0.extract.trunc, ptr %3, align 4, !tbaa !293
  %4 = trunc nuw i64 %.sroa.3.0.extract.shift to i32
  %5 = and i32 %4, 1
  %6 = getelementptr inbounds nuw i8, ptr %3, i64 4
  store i32 %5, ptr %6, align 4, !tbaa !295
  %7 = getelementptr inbounds nuw i8, ptr %0, i64 240
  %.sroa.0.0.copyload = load i32, ptr %7, align 16, !tbaa !34
  %8 = call noundef i32 @_ZN5folly6netops10setsockoptENS_13NetworkSocketEiiPKvj(i32 %.sroa.0.0.copyload, i32 noundef 1, i32 noundef 61, ptr noundef nonnull %3, i32 noundef 8)
  %.not = icmp eq i32 %8, 0
  %.sroa.3.0.extract.trunc = trunc i64 %.sroa.3.0.extract.shift to i8
  %spec.select = select i1 %.not, i8 %.sroa.3.0.extract.trunc, i8 0
  %spec.select4 = select i1 %.not, i32 %.sroa.02.0.extract.trunc, i32 -1
  %9 = getelementptr inbounds nuw i8, ptr %0, i64 348
  %10 = getelementptr inbounds nuw i8, ptr %0, i64 356
  %11 = load i8, ptr %10, align 4, !tbaa !145, !range !21, !noundef !22
  %12 = trunc nuw i8 %11 to i1
  br i1 %12, label %13, label %14

13:                                               ; preds = %2
  store i32 %spec.select4, ptr %9, align 4, !tbaa !34
  %.sroa.7.0..sroa_idx = getelementptr inbounds nuw i8, ptr %0, i64 352
  store i8 %spec.select, ptr %.sroa.7.0..sroa_idx, align 16, !tbaa !194
  br label %_ZN5folly8OptionalINS_14AsyncUDPSocket6TXTimeEEaSIS2_EERS3_OT_.exit

14:                                               ; preds = %2
  %.sroa.7.0.insert.ext = zext i8 %spec.select to i64
  %.sroa.7.0.insert.shift = shl nuw nsw i64 %.sroa.7.0.insert.ext, 32
  %.sroa.0.0.insert.ext = zext i32 %spec.select4 to i64
  %.sroa.0.0.insert.insert = or disjoint i64 %.sroa.7.0.insert.shift, %.sroa.0.0.insert.ext
  store i64 %.sroa.0.0.insert.insert, ptr %9, align 4
  store i8 1, ptr %10, align 4, !tbaa !145
  br label %_ZN5folly8OptionalINS_14AsyncUDPSocket6TXTimeEEaSIS2_EERS3_OT_.exit

_ZN5folly8OptionalINS_14AsyncUDPSocket6TXTimeEEaSIS2_EERS3_OT_.exit: ; preds = %13, %14
  call void @llvm.lifetime.end.p0(i64 8, ptr nonnull %3) #36
  ret i1 %.not
}